; Function Attrs: nofree norecurse nosync nounwind memory(read, inaccessiblemem: none) uwtable
define hidden i32 @gnu_debuglink_crc32(i32 noundef %0, ptr noundef readonly %1, i64 noundef %2) local_unnamed_addr #0 {
  %4 = getelementptr inbounds i8, ptr %1, i64 %2
  %5 = icmp sgt i64 %2, 0
  br i1 %5, label %.lr.ph.preheader, label %._crit_edge

.lr.ph.preheader:                                 ; preds = %3
  %6 = xor i32 %0, -1
  br label %.lr.ph

.lr.ph:                                           ; preds = %.lr.ph.preheader, %.lr.ph
  %.011 = phi i32 [ %12, %.lr.ph ], [ %6, %.lr.ph.preheader ]
  %.0910 = phi ptr [ %13, %.lr.ph ], [ %1, %.lr.ph.preheader ]
  %7 = load i8, ptr %.0910, align 1
  %.0.tr = trunc i32 %.011 to i8
  %.narrow = xor i8 %7, %.0.tr
  %8 = zext i8 %.narrow to i64
  %9 = getelementptr inbounds [256 x i32], ptr @gnu_debuglink_crc32.crc32_table, i64 0, i64 %8
  %10 = load i32, ptr %9, align 4
  %11 = lshr i32 %.011, 8
  %12 = xor i32 %10, %11
  %13 = getelementptr inbounds i8, ptr %.0910, i64 1
  %14 = icmp ult ptr %13, %4
  br i1 %14, label %.lr.ph, label %._crit_edge.loopexit, !llvm.loop !6

._crit_edge.loopexit:                             ; preds = %.lr.ph
  %15 = xor i32 %12, -1
  br label %._crit_edge

._crit_edge:                                      ; preds = %._crit_edge.loopexit, %3
  %.0.lcssa = phi i32 [ %0, %3 ], [ %15, %._crit_edge.loopexit ]
  ret i32 %.0.lcssa
}